target datalayout = "e-m:e-p270:32:32-p271:32:32-p272:64:64-i64:64-i128:128-f80:128-n8:16:32:64-S128"
target triple = "x86_64-pc-linux-gnu"

%struct.hmac_ctx_st = type { ptr, ptr, ptr, ptr, %union.anon }
%union.anon = type { i32 }

; Function Attrs: nounwind uwtable
define void @HMAC_CTX_set_flags(ptr noundef %0, i64 noundef %1) #0 {
  %3 = alloca ptr, align 8
  %4 = alloca i64, align 8
  store ptr %0, ptr %3, align 8, !tbaa !3
  store i64 %1, ptr %4, align 8, !tbaa !27
  %5 = load ptr, ptr %3, align 8, !tbaa !3
  %6 = getelementptr inbounds nuw %struct.hmac_ctx_st, ptr %5, i32 0, i32 2
  %7 = load ptr, ptr %6, align 8, !tbaa !22
  %8 = load i64, ptr %4, align 8, !tbaa !27
  %9 = trunc i64 %8 to i32
  call void @EVP_MD_CTX_set_flags(ptr noundef %7, i32 noundef %9)
  %10 = load ptr, ptr %3, align 8, !tbaa !3
  %11 = getelementptr inbounds nuw %struct.hmac_ctx_st, ptr %10, i32 0, i32 3
  %12 = load ptr, ptr %11, align 8, !tbaa !24
  %13 = load i64, ptr %4, align 8, !tbaa !27
  %14 = trunc i64 %13 to i32
  call void @EVP_MD_CTX_set_flags(ptr noundef %12, i32 noundef %14)
  %15 = load ptr, ptr %3, align 8, !tbaa !3
  %16 = getelementptr inbounds nuw %struct.hmac_ctx_st, ptr %15, i32 0, i32 1
  %17 = load ptr, ptr %16, align 8, !tbaa !18
  %18 = load i64, ptr %4, align 8, !tbaa !27
  %19 = trunc i64 %18 to i32
  call void @EVP_MD_CTX_set_flags(ptr noundef %17, i32 noundef %19)
  ret void
}