; Function Attrs: nounwind uwtable
define void @HMAC_CTX_set_flags(ptr noundef readonly captures(none) %0, i64 noundef %1) local_unnamed_addr #0 {
  %3 = getelementptr inbounds nuw i8, ptr %0, i64 16
  %4 = load ptr, ptr %3, align 8, !tbaa !17
  %5 = trunc i64 %1 to i32
  tail call void @EVP_MD_CTX_set_flags(ptr noundef %4, i32 noundef %5) #7
  %6 = getelementptr inbounds nuw i8, ptr %0, i64 24
  %7 = load ptr, ptr %6, align 8, !tbaa !19
  tail call void @EVP_MD_CTX_set_flags(ptr noundef %7, i32 noundef %5) #7
  %8 = getelementptr inbounds nuw i8, ptr %0, i64 8
  %9 = load ptr, ptr %8, align 8, !tbaa !11
  tail call void @EVP_MD_CTX_set_flags(ptr noundef %9, i32 noundef %5) #7
  ret void
}